; Function Attrs: nounwind uwtable
define hidden range(i32 0, 2) i32 @pysqlite_check_connection(ptr noundef readonly captures(none) %0) local_unnamed_addr #0 {
  %2 = getelementptr inbounds nuw i8, ptr %0, i64 56
  %3 = load i32, ptr %2, align 8, !tbaa !3
  %.not = icmp eq i32 %3, 0
  br i1 %.not, label %4, label %8

4:                                                ; preds = %1
  %5 = getelementptr i8, ptr %0, i64 8
  %.val = load ptr, ptr %5, align 8, !tbaa !16
  %6 = tail call ptr @PyType_GetModuleByDef(ptr noundef %.val, ptr noundef nonnull @_sqlite3module) #7
  %7 = tail call ptr @PyModule_GetState(ptr noundef %6) #7
  br label %.sink.split

8:                                                ; preds = %1
  %9 = getelementptr inbounds nuw i8, ptr %0, i64 16
  %10 = load ptr, ptr %9, align 8, !tbaa !17
  %.not5 = icmp eq ptr %10, null
  br i1 %.not5, label %11, label %16

11:                                               ; preds = %8
  %12 = getelementptr inbounds nuw i8, ptr %0, i64 24
  %13 = load ptr, ptr %12, align 8, !tbaa !18
  br label %.sink.split

.sink.split:                                      ; preds = %4, %11
  %.sink = phi ptr [ %13, %11 ], [ %7, %4 ]
  %.str.1.sink = phi ptr [ @.str.1, %11 ], [ @.str, %4 ]
  %14 = getelementptr inbounds nuw i8, ptr %.sink, i64 64
  %15 = load ptr, ptr %14, align 8, !tbaa !19
  tail call void @PyErr_SetString(ptr noundef %15, ptr noundef nonnull %.str.1.sink) #7
  br label %16

16:                                               ; preds = %.sink.split, %8
  %.0 = phi i32 [ 1, %8 ], [ 0, %.sink.split ]
  ret i32 %.0
}